; Function Attrs: mustprogress uwtable
define void @_ZN14duckdb_parquet12FileMetaData24__set_key_value_metadataERKN6duckdb6vectorINS_8KeyValueELb1EEE(ptr noundef nonnull align 8 dereferenceable(361) %0, ptr noundef nonnull align 8 dereferenceable(24) %1) local_unnamed_addr #2 align 2 {
  %3 = getelementptr inbounds nuw i8, ptr %0, i64 72
  %4 = tail call noundef nonnull align 8 dereferenceable(24) ptr @_ZNSt6vectorIN14duckdb_parquet8KeyValueESaIS1_EEaSERKS3_(ptr noundef nonnull align 8 dereferenceable(24) %3, ptr noundef nonnull align 8 dereferenceable(24) %1)
  %5 = getelementptr inbounds nuw i8, ptr %0, i64 360
  %6 = load i8, ptr %5, align 8
  %7 = or i8 %6, 1
  store i8 %7, ptr %5, align 8
  ret void
}